(dp0
I0
VCOCO_val2014_000000519853
p1
sI1
VCOCO_val2014_000000442565
p2
sI2
VCOCO_val2014_000000317448
p3
sI3
VCOCO_val2014_000000358075
p4
sI4
VCOCO_val2014_000000192798
p5
sI5
VCOCO_val2014_000000551608
p6
sI6
VCOCO_val2014_000000346175
p7
sI7
VCOCO_val2014_000000362506
p8
sI8
VCOCO_val2014_000000319647
p9
sI9
VCOCO_val2014_000000389256
p10
sI10
VCOCO_val2014_000000372819
p11
sI11
VCOCO_val2014_000000028676
p12
sI12
VCOCO_val2014_000000248152
p13
sI13
VCOCO_val2014_000000196706
p14
sI14
VCOCO_val2014_000000530765
p15
sI15
VCOCO_val2014_000000065860
p16
sI16
VCOCO_val2014_000000467135
p17
sI17
VCOCO_val2014_000000360494
p18
sI18
VCOCO_val2014_000000467130
p19
sI19
VCOCO_val2014_000000020748
p20
sI20
VCOCO_val2014_000000019446
p21
sI21
VCOCO_val2014_000000019444
p22
sI22
VCOCO_val2014_000000331817
p23
sI23
VCOCO_val2014_000000522427
p24
sI24
VCOCO_val2014_000000119146
p25
sI25
VCOCO_val2014_000000370701
p26
sI26
VCOCO_val2014_000000120964
p27
sI27
VCOCO_val2014_000000071004
p28
sI28
VCOCO_val2014_000000308793
p29
sI29
VCOCO_val2014_000000112830
p30
sI30
VCOCO_val2014_000000191169
p31
sI31
VCOCO_val2014_000000119088
p32
sI32
VCOCO_val2014_000000268484
p33
sI33
VCOCO_val2014_000000205134
p34
sI34
VCOCO_val2014_000000167989
p35
sI35
VCOCO_val2014_000000532693
p36
sI36
VCOCO_val2014_000000247839
p37
sI37
VCOCO_val2014_000000368676
p38
sI38
VCOCO_val2014_000000430245
p39
sI39
VCOCO_val2014_000000229383
p40
sI40
VCOCO_val2014_000000548939
p41
sI41
VCOCO_val2014_000000424002
p42
sI42
VCOCO_val2014_000000299200
p43
sI43
VCOCO_val2014_000000382737
p44
sI44
VCOCO_val2014_000000243780
p45
sI45
VCOCO_val2014_000000364592
p46
sI46
VCOCO_val2014_000000369208
p47
sI47
VCOCO_val2014_000000016599
p48
sI48
VCOCO_val2014_000000565962
p49
sI49
VCOCO_val2014_000000205035
p50
sI50
VCOCO_val2014_000000078026
p51
sI51
VCOCO_val2014_000000421955
p52
sI52
VCOCO_val2014_000000507935
p53
sI53
VCOCO_val2014_000000381106
p54
sI54
VCOCO_val2014_000000458953
p55
sI55
VCOCO_val2014_000000026670
p56
sI56
VCOCO_val2014_000000230501
p57
sI57
VCOCO_val2014_000000444804
p58
sI58
VCOCO_val2014_000000477466
p59
sI59
VCOCO_val2014_000000308587
p60
sI60
VCOCO_val2014_000000411875
p61
sI61
VCOCO_val2014_000000426070
p62
sI62
VCOCO_val2014_000000155319
p63
sI63
VCOCO_val2014_000000330449
p64
sI64
VCOCO_val2014_000000532530
p65
sI65
VCOCO_val2014_000000039081
p66
sI66
VCOCO_val2014_000000182279
p67
sI67
VCOCO_val2014_000000264222
p68
sI68
VCOCO_val2014_000000506544
p69
sI69
VCOCO_val2014_000000164555
p70
sI70
VCOCO_val2014_000000051920
p71
sI71
VCOCO_val2014_000000228683
p72
sI72
VCOCO_val2014_000000340069
p73
sI73
VCOCO_val2014_000000061773
p74
sI74
VCOCO_val2014_000000383137
p75
sI75
VCOCO_val2014_000000022129
p76
sI76
VCOCO_val2014_000000493728
p77
sI77
VCOCO_val2014_000000269918
p78
sI78
VCOCO_val2014_000000469067
p79
sI79
VCOCO_val2014_000000295006
p80
sI80
VCOCO_val2014_000000033924
p81
sI81
VCOCO_val2014_000000214958
p82
sI82
VCOCO_val2014_000000266379
p83
sI83
VCOCO_val2014_000000227482
p84
sI84
VCOCO_val2014_000000303305
p85
sI85
VCOCO_val2014_000000266278
p86
sI86
VCOCO_val2014_000000540783
p87
sI87
VCOCO_val2014_000000243825
p88
sI88
VCOCO_val2014_000000236567
p89
sI89
VCOCO_val2014_000000385029
p90
sI90
VCOCO_val2014_000000427133
p91
sI91
VCOCO_val2014_000000456708
p92
sI92
VCOCO_val2014_000000323766
p93
sI93
VCOCO_val2014_000000104796
p94
sI94
VCOCO_val2014_000000563723
p95
sI95
VCOCO_val2014_000000047112
p96
sI96
VCOCO_val2014_000000465963
p97
sI97
VCOCO_val2014_000000355871
p98
sI98
VCOCO_val2014_000000346214
p99
sI99
VCOCO_val2014_000000360624
p100
sI100
VCOCO_val2014_000000057363
p101
sI101
VCOCO_val2014_000000159854
p102
sI102
VCOCO_val2014_000000502456
p103
sI103
VCOCO_val2014_000000514083
p104
sI104
VCOCO_val2014_000000236599
p105
sI105
VCOCO_val2014_000000104495
p106
sI106
VCOCO_val2014_000000104494
p107
sI107
VCOCO_val2014_000000049327
p108
sI108
VCOCO_val2014_000000262235
p109
sI109
VCOCO_val2014_000000446497
p110
sI110
VCOCO_val2014_000000393271
p111
sI111
VCOCO_val2014_000000534679
p112
sI112
VCOCO_val2014_000000374966
p113
sI113
VCOCO_val2014_000000212605
p114
sI114
VCOCO_val2014_000000344154
p115
sI115
VCOCO_val2014_000000079975
p116
sI116
VCOCO_val2014_000000174425
p117
sI117
VCOCO_val2014_000000364665
p118
sI118
VCOCO_val2014_000000404517
p119
sI119
VCOCO_val2014_000000243912
p120
sI120
VCOCO_val2014_000000276552
p121
sI121
VCOCO_val2014_000000469200
p122
sI122
VCOCO_val2014_000000242510
p123
sI123
VCOCO_val2014_000000163929
p124
sI124
VCOCO_val2014_000000373424
p125
sI125
VCOCO_val2014_000000522418
p126
sI126
VCOCO_val2014_000000362797
p127
sI127
VCOCO_val2014_000000421902
p128
sI128
VCOCO_val2014_000000480643
p129
sI129
VCOCO_val2014_000000047285
p130
sI130
VCOCO_val2014_000000256343
p131
sI131
VCOCO_val2014_000000229529
p132
sI132
VCOCO_val2014_000000141205
p133
sI133
VCOCO_val2014_000000024776
p134
sI134
VCOCO_val2014_000000580972
p135
sI135
VCOCO_val2014_000000117061
p136
sI136
VCOCO_val2014_000000295303
p137
sI137
VCOCO_val2014_000000063521
p138
sI138
VCOCO_val2014_000000097667
p139
sI139
VCOCO_val2014_000000290868
p140
sI140
VCOCO_val2014_000000458255
p141
sI141
VCOCO_val2014_000000325831
p142
sI142
VCOCO_val2014_000000163852
p143
sI143
VCOCO_val2014_000000415798
p144
sI144
VCOCO_val2014_000000352476
p145
sI145
VCOCO_val2014_000000025293
p146
sI146
VCOCO_val2014_000000436323
p147
sI147
VCOCO_val2014_000000053484
p148
sI148
VCOCO_val2014_000000149646
p149
sI149
VCOCO_val2014_000000119120
p150
sI150
VCOCO_val2014_000000469203
p151
sI151
VCOCO_val2014_000000072368
p152
sI152
VCOCO_val2014_000000495687
p153
sI153
VCOCO_val2014_000000371036
p154
sI154
VCOCO_val2014_000000106739
p155
sI155
VCOCO_val2014_000000012827
p156
sI156
VCOCO_val2014_000000020671
p157
sI157
VCOCO_val2014_000000097865
p158
sI158
VCOCO_val2014_000000084000
p159
sI159
VCOCO_val2014_000000549119
p160
sI160
VCOCO_val2014_000000319607
p161
sI161
VCOCO_val2014_000000512836
p162
sI162
VCOCO_val2014_000000184384
p163
sI163
VCOCO_val2014_000000099874
p164
sI164
VCOCO_val2014_000000372874
p165
sI165
VCOCO_val2014_000000026734
p166
sI166
VCOCO_val2014_000000032817
p167
sI167
VCOCO_val2014_000000032812
p168
sI168
VCOCO_val2014_000000334085
p169
sI169
VCOCO_val2014_000000323799
p170
sI170
VCOCO_val2014_000000325768
p171
sI171
VCOCO_val2014_000000022870
p172
sI172
VCOCO_val2014_000000360735
p173
sI173
VCOCO_val2014_000000026690
p174
sI174
VCOCO_val2014_000000313359
p175
sI175
VCOCO_val2014_000000359105
p176
sI176
VCOCO_val2014_000000469051
p177
sI177
VCOCO_val2014_000000104625
p178
sI178
VCOCO_val2014_000000221291
p179
sI179
VCOCO_val2014_000000419974
p180
sI180
VCOCO_val2014_000000209028
p181
sI181
VCOCO_val2014_000000404145
p182
sI182
VCOCO_val2014_000000149568
p183
sI183
VCOCO_val2014_000000196074
p184
sI184
VCOCO_val2014_000000262148
p185
sI185
VCOCO_val2014_000000276151
p186
sI186
VCOCO_val2014_000000487428
p187
sI187
VCOCO_val2014_000000293891
p188
sI188
VCOCO_val2014_000000184499
p189
sI189
VCOCO_val2014_000000302292
p190
sI190
VCOCO_val2014_000000296994
p191
sI191
VCOCO_val2014_000000178948
p192
sI192
VCOCO_val2014_000000032777
p193
sI193
VCOCO_val2014_000000049444
p194
sI194
VCOCO_val2014_000000370813
p195
sI195
VCOCO_val2014_000000449560
p196
sI196
VCOCO_val2014_000000229427
p197
sI197
VCOCO_val2014_000000300375
p198
sI198
VCOCO_val2014_000000146865
p199
sI199
VCOCO_val2014_000000292971
p200
sI200
VCOCO_val2014_000000075806
p201
sI201
VCOCO_val2014_000000233005
p202
sI202
VCOCO_val2014_000000147488
p203
sI203
VCOCO_val2014_000000503663
p204
sI204
VCOCO_val2014_000000262200
p205
sI205
VCOCO_val2014_000000577858
p206
sI206
VCOCO_val2014_000000397318
p207
sI207
VCOCO_val2014_000000510122
p208
sI208
VCOCO_val2014_000000490199
p209
sI209
VCOCO_val2014_000000469158
p210
sI210
VCOCO_val2014_000000267625
p211
sI211
VCOCO_val2014_000000280709
p212
sI212
VCOCO_val2014_000000311310
p213
sI213
VCOCO_val2014_000000161879
p214
sI214
VCOCO_val2014_000000518262
p215
sI215
VCOCO_val2014_000000362640
p216
sI216
VCOCO_val2014_000000581569
p217
sI217
VCOCO_val2014_000000072105
p218
sI218
VCOCO_val2014_000000360600
p219
sI219
VCOCO_val2014_000000274470
p220
sI220
VCOCO_val2014_000000385115
p221
sI221
VCOCO_val2014_000000194786
p222
sI222
VCOCO_val2014_000000087387
p223
sI223
VCOCO_val2014_000000524373
p224
sI224
VCOCO_val2014_000000152933
p225
sI225
VCOCO_val2014_000000104841
p226
sI226
VCOCO_val2014_000000057597
p227
sI227
VCOCO_val2014_000000459801
p228
sI228
VCOCO_val2014_000000028842
p229
sI229
VCOCO_val2014_000000256251
p230
sI230
VCOCO_val2014_000000508977
p231
sI231
VCOCO_val2014_000000282847
p232
sI232
VCOCO_val2014_000000142940
p233
sI233
VCOCO_val2014_000000272440
p234
sI234
VCOCO_val2014_000000137412
p235
sI235
VCOCO_val2014_000000503148
p236
sI236
VCOCO_val2014_000000346154
p237
sI237
VCOCO_val2014_000000012543
p238
sI238
VCOCO_val2014_000000260818
p239
sI239
VCOCO_val2014_000000161978
p240
sI240
VCOCO_val2014_000000041020
p241
sI241
VCOCO_val2014_000000151781
p242
sI242
VCOCO_val2014_000000258243
p243
sI243
VCOCO_val2014_000000167122
p244
sI244
VCOCO_val2014_000000385078
p245
sI245
VCOCO_val2014_000000393226
p246
sI246
VCOCO_val2014_000000045175
p247
sI247
VCOCO_val2014_000000237759
p248
sI248
VCOCO_val2014_000000256197
p249
sI249
VCOCO_val2014_000000117908
p250
sI250
VCOCO_val2014_000000486770
p251
sI251
VCOCO_val2014_000000363181
p252
sI252
VCOCO_val2014_000000424641
p253
sI253
VCOCO_val2014_000000303520
p254
sI254
VCOCO_val2014_000000225603
p255
sI255
VCOCO_val2014_000000147681
p256
sI256
VCOCO_val2014_000000020908
p257
sI257
VCOCO_val2014_000000147685
p258
sI258
VCOCO_val2014_000000405191
p259
sI259
VCOCO_val2014_000000471789
p260
sI260
VCOCO_val2014_000000452611
p261
sI261
VCOCO_val2014_000000209162
p262
sI262
VCOCO_val2014_000000360480
p263
sI263
VCOCO_val2014_000000338041
p264
sI264
VCOCO_val2014_000000074001
p265
sI265
VCOCO_val2014_000000336265
p266
sI266
VCOCO_val2014_000000428218
p267
sI267
VCOCO_val2014_000000559160
p268
sI268
VCOCO_val2014_000000398031
p269
sI269
VCOCO_val2014_000000031041
p270
sI270
VCOCO_val2014_000000569437
p271
sI271
VCOCO_val2014_000000293072
p272
sI272
VCOCO_val2014_000000528525
p273
sI273
VCOCO_val2014_000000182339
p274
sI274
VCOCO_val2014_000000456969
p275
sI275
VCOCO_val2014_000000022850
p276
sI276
VCOCO_val2014_000000120872
p277
sI277
VCOCO_val2014_000000553221
p278
sI278
VCOCO_val2014_000000063565
p279
sI279
VCOCO_val2014_000000569432
p280
sI280
VCOCO_val2014_000000009801
p281
sI281
VCOCO_val2014_000000378948
p282
sI282
VCOCO_val2014_000000034818
p283
sI283
VCOCO_val2014_000000483368
p284
sI284
VCOCO_val2014_000000041279
p285
sI285
VCOCO_val2014_000000016064
p286
sI286
VCOCO_val2014_000000368663
p287
sI287
VCOCO_val2014_000000114710
p288
sI288
VCOCO_val2014_000000281512
p289
sI289
VCOCO_val2014_000000405674
p290
sI290
VCOCO_val2014_000000162580
p291
sI291
VCOCO_val2014_000000430125
p292
sI292
VCOCO_val2014_000000131138
p293
sI293
VCOCO_val2014_000000020641
p294
sI294
VCOCO_val2014_000000184405
p295
sI295
VCOCO_val2014_000000415990
p296
sI296
VCOCO_val2014_000000491556
p297
sI297
VCOCO_val2014_000000507927
p298
sI298
VCOCO_val2014_000000028692
p299
sI299
VCOCO_val2014_000000293200
p300
sI300
VCOCO_val2014_000000102555
p301
sI301
VCOCO_val2014_000000327701
p302
sI302
VCOCO_val2014_000000293207
p303
sI303
VCOCO_val2014_000000196665
p304
sI304
VCOCO_val2014_000000348162
p305
sI305
VCOCO_val2014_000000290843
p306
sI306
VCOCO_val2014_000000460841
p307
sI307
VCOCO_val2014_000000104715
p308
sI308
VCOCO_val2014_000000022801
p309
sI309
VCOCO_val2014_000000229481
p310
sI310
VCOCO_val2014_000000278134
p311
sI311
VCOCO_val2014_000000196660
p312
sI312
VCOCO_val2014_000000460837
p313
sI313
VCOCO_val2014_000000532732
p314
sI314
VCOCO_val2014_000000254161
p315
sI315
VCOCO_val2014_000000246105
p316
sI316
VCOCO_val2014_000000177262
p317
sI317
VCOCO_val2014_000000059598
p318
sI318
VCOCO_val2014_000000323851
p319
sI319
VCOCO_val2014_000000223930
p320
sI320
VCOCO_val2014_000000478567
p321
sI321
VCOCO_val2014_000000048419
p322
sI322
VCOCO_val2014_000000169076
p323
sI323
VCOCO_val2014_000000473118
p324
sI324
VCOCO_val2014_000000518222
p325
sI325
VCOCO_val2014_000000557117
p326
sI326
VCOCO_val2014_000000558528
p327
sI327
VCOCO_val2014_000000301221
p328
sI328
VCOCO_val2014_000000524333
p329
sI329
VCOCO_val2014_000000237764
p330
sI330
VCOCO_val2014_000000482589
p331
sI331
VCOCO_val2014_000000278550
p332
sI332
VCOCO_val2014_000000281296
p333
sI333
VCOCO_val2014_000000409708
p334
sI334
VCOCO_val2014_000000360613
p335
sI335
VCOCO_val2014_000000366679
p336
sI336
VCOCO_val2014_000000360611
p337
sI337
VCOCO_val2014_000000360610
p338
sI338
VCOCO_val2014_000000253986
p339
sI339
VCOCO_val2014_000000360595
p340
sI340
VCOCO_val2014_000000381246
p341
sI341
VCOCO_val2014_000000438497
p342
sI342
VCOCO_val2014_000000166948
p343
sI343
VCOCO_val2014_000000108668
p344
sI344
VCOCO_val2014_000000524638
p345
sI345
VCOCO_val2014_000000143554
p346
sI346
VCOCO_val2014_000000360504
p347
sI347
VCOCO_val2014_000000270505
p348
sI348
VCOCO_val2014_000000280734
p349
sI349
VCOCO_val2014_000000374990
p350
sI350
VCOCO_val2014_000000147740
p351
sI351
VCOCO_val2014_000000538859
p352
sI352
VCOCO_val2014_000000215579
p353
sI353
VCOCO_val2014_000000310442
p354
sI354
VCOCO_val2014_000000462643
p355
sI355
VCOCO_val2014_000000385248
p356
sI356
VCOCO_val2014_000000505945
p357
sI357
VCOCO_val2014_000000535523
p358
sI358
VCOCO_val2014_000000321579
p359
sI359
VCOCO_val2014_000000442478
p360
sI360
VCOCO_val2014_000000553075
p361
sI361
VCOCO_val2014_000000553074
p362
sI362
VCOCO_val2014_000000491681
p363
sI363
VCOCO_val2014_000000442387
p364
sI364
VCOCO_val2014_000000417987
p365
sI365
VCOCO_val2014_000000477202
p366
sI366
VCOCO_val2014_000000419860
p367
sI367
VCOCO_val2014_000000036942
p368
sI368
VCOCO_val2014_000000207046
p369
sI369
VCOCO_val2014_000000122934
p370
sI370
VCOCO_val2014_000000477195
p371
sI371
VCOCO_val2014_000000231806
p372
sI372
VCOCO_val2014_000000434261
p373
sI373
VCOCO_val2014_000000127170
p374
sI374
VCOCO_val2014_000000059547
p375
sI375
VCOCO_val2014_000000336049
p376
sI376
VCOCO_val2014_000000113678
p377
sI377
VCOCO_val2014_000000508006
p378
sI378
VCOCO_val2014_000000145408
p379
sI379
VCOCO_val2014_000000319704
p380
sI380
VCOCO_val2014_000000254838
p381
sI381
VCOCO_val2014_000000102577
p382
sI382
VCOCO_val2014_000000579822
p383
sI383
VCOCO_val2014_000000447854
p384
sI384
VCOCO_val2014_000000579760
p385
sI385
VCOCO_val2014_000000067833
p386
sI386
VCOCO_val2014_000000121006
p387
sI387
VCOCO_val2014_000000399636
p388
sI388
VCOCO_val2014_000000067785
p389
sI389
VCOCO_val2014_000000424162
p390
sI390
VCOCO_val2014_000000405529
p391
sI391
VCOCO_val2014_000000428263
p392
sI392
VCOCO_val2014_000000288430
p393
sI393
VCOCO_val2014_000000065883
p394
sI394
VCOCO_val2014_000000542939
p395
sI395
VCOCO_val2014_000000197809
p396
sI396
VCOCO_val2014_000000098322
p397
sI397
VCOCO_val2014_000000117891
p398
sI398
VCOCO_val2014_000000444631
p399
sI399
VCOCO_val2014_000000293249
p400
sI400
VCOCO_val2014_000000399415
p401
sI401
VCOCO_val2014_000000565395
p402
sI402
VCOCO_val2014_000000512191
p403
sI403
VCOCO_val2014_000000450577
p404
sI404
VCOCO_val2014_000000090659
p405
sI405
VCOCO_val2014_000000213247
p406
sI406
VCOCO_val2014_000000309573
p407
sI407
VCOCO_val2014_000000190140
p408
sI408
VCOCO_val2014_000000268400
p409
sI409
VCOCO_val2014_000000368752
p410
sI410
VCOCO_val2014_000000004312
p411
sI411
VCOCO_val2014_000000535106
p412
sI412
VCOCO_val2014_000000160012
p413
sI413
VCOCO_val2014_000000262175
p414
sI414
VCOCO_val2014_000000295055
p415
sI415
VCOCO_val2014_000000118811
p416
sI416
VCOCO_val2014_000000379108
p417
sI417
VCOCO_val2014_000000356421
p418
sI418
VCOCO_val2014_000000466981
p419
sI419
VCOCO_val2014_000000241717
p420
sI420
VCOCO_val2014_000000493797
p421
sI421
VCOCO_val2014_000000274438
p422
sI422
VCOCO_val2014_000000053315
p423
sI423
VCOCO_val2014_000000198799
p424
sI424
VCOCO_val2014_000000125632
p425
sI425
VCOCO_val2014_000000301305
p426
sI426
VCOCO_val2014_000000292493
p427
sI427
VCOCO_val2014_000000327917
p428
sI428
VCOCO_val2014_000000288862
p429
sI429
VCOCO_val2014_000000086147
p430
sI430
VCOCO_val2014_000000109612
p431
sI431
VCOCO_val2014_000000288944
p432
sI432
VCOCO_val2014_000000047361
p433
sI433
VCOCO_val2014_000000288933
p434
sI434
VCOCO_val2014_000000540774
p435
sI435
VCOCO_val2014_000000162092
p436
sI436
VCOCO_val2014_000000327807
p437
sI437
VCOCO_val2014_000000581654
p438
sI438
VCOCO_val2014_000000114239
p439
sI439
VCOCO_val2014_000000458781
p440
sI440
VCOCO_val2014_000000014439
p441
sI441
VCOCO_val2014_000000416098
p442
sI442
VCOCO_val2014_000000242007
p443
sI443
VCOCO_val2014_000000131089
p444
sI444
VCOCO_val2014_000000518375
p445
sI445
VCOCO_val2014_000000475725
p446
sI446
VCOCO_val2014_000000227709
p447
sI447
VCOCO_val2014_000000034877
p448
sI448
VCOCO_val2014_000000321718
p449
sI449
VCOCO_val2014_000000253960
p450
sI450
VCOCO_val2014_000000253964
p451
sI451
VCOCO_val2014_000000321804
p452
sI452
VCOCO_val2014_000000266250
p453
sI453
VCOCO_val2014_000000434459
p454
sI454
VCOCO_val2014_000000559454
p455
sI455
VCOCO_val2014_000000301575
p456
sI456
VCOCO_val2014_000000098493
p457
sI457
VCOCO_val2014_000000045388
p458
sI458
VCOCO_val2014_000000539355
p459
sI459
VCOCO_val2014_000000448535
p460
sI460
VCOCO_val2014_000000434217
p461
sI461
VCOCO_val2014_000000501382
p462
sI462
VCOCO_val2014_000000499940
p463
sI463
VCOCO_val2014_000000098392
p464
sI464
VCOCO_val2014_000000286785
p465
sI465
VCOCO_val2014_000000139781
p466
sI466
VCOCO_val2014_000000270672
p467
sI467
VCOCO_val2014_000000513041
p468
sI468
VCOCO_val2014_000000220531
p469
sI469
VCOCO_val2014_000000147471
p470
sI470
VCOCO_val2014_000000541071
p471
sI471
VCOCO_val2014_000000565389
p472
sI472
VCOCO_val2014_000000245440
p473
sI473
VCOCO_val2014_000000118965
p474
sI474
VCOCO_val2014_000000118966
p475
sI475
VCOCO_val2014_000000262404
p476
sI476
VCOCO_val2014_000000393497
p477
sI477
VCOCO_val2014_000000262197
p478
sI478
VCOCO_val2014_000000280607
p479
sI479
VCOCO_val2014_000000413950
p480
sI480
VCOCO_val2014_000000137408
p481
sI481
VCOCO_val2014_000000440336
p482
sI482
VCOCO_val2014_000000241668
p483
sI483
VCOCO_val2014_000000311471
p484
sI484
VCOCO_val2014_000000150235
p485
sI485
VCOCO_val2014_000000139475
p486
sI486
VCOCO_val2014_000000258132
p487
sI487
VCOCO_val2014_000000570756
p488
sI488
VCOCO_val2014_000000421889
p489
sI489
VCOCO_val2014_000000473237
p490
sI490
VCOCO_val2014_000000152582
p491
sI491
VCOCO_val2014_000000106508
p492
sI492
VCOCO_val2014_000000047181
p493
sI493
VCOCO_val2014_000000270376
p494
sI494
VCOCO_val2014_000000422155
p495
sI495
VCOCO_val2014_000000362520
p496
sI496
VCOCO_val2014_000000211097
p497
sI497
VCOCO_val2014_000000155912
p498
sI498
VCOCO_val2014_000000393372
p499
sI499
VCOCO_val2014_000000450728
p500
sI500
VCOCO_val2014_000000389273
p501
sI501
VCOCO_val2014_000000207003
p502
sI502
VCOCO_val2014_000000301282
p503
sI503
VCOCO_val2014_000000020487
p504
sI504
VCOCO_val2014_000000301148
p505
sI505
VCOCO_val2014_000000047263
p506
sI506
VCOCO_val2014_000000080932
p507
sI507
VCOCO_val2014_000000382125
p508
sI508
VCOCO_val2014_000000311378
p509
sI509
VCOCO_val2014_000000188546
p510
sI510
VCOCO_val2014_000000094271
p511
sI511
VCOCO_val2014_000000427117
p512
sI512
VCOCO_val2014_000000581683
p513
sI513
VCOCO_val2014_000000515421
p514
sI514
VCOCO_val2014_000000114745
p515
sI515
VCOCO_val2014_000000135486
p516
sI516
VCOCO_val2014_000000204232
p517
sI517
VCOCO_val2014_000000469192
p518
sI518
VCOCO_val2014_000000090754
p519
sI519
VCOCO_val2014_000000278705
p520
sI520
VCOCO_val2014_000000186412
p521
sI521
VCOCO_val2014_000000168353
p522
sI522
VCOCO_val2014_000000426203
p523
sI523
VCOCO_val2014_000000567562
p524
sI524
VCOCO_val2014_000000071737
p525
sI525
VCOCO_val2014_000000505862
p526
sI526
VCOCO_val2014_000000518182
p527
sI527
VCOCO_val2014_000000536154
p528
sI528
VCOCO_val2014_000000354398
p529
sI529
VCOCO_val2014_000000333167
p530
sI530
VCOCO_val2014_000000131108
p531
sI531
VCOCO_val2014_000000222467
p532
sI532
VCOCO_val2014_000000428366
p533
sI533
VCOCO_val2014_000000366484
p534
sI534
VCOCO_val2014_000000471175
p535
sI535
VCOCO_val2014_000000032932
p536
sI536
VCOCO_val2014_000000352552
p537
sI537
VCOCO_val2014_000000295097
p538
sI538
VCOCO_val2014_000000422025
p539
sI539
VCOCO_val2014_000000377012
p540
sI540
VCOCO_val2014_000000131152
p541
sI541
VCOCO_val2014_000000368980
p542
sI542
VCOCO_val2014_000000307531
p543
sI543
VCOCO_val2014_000000474667
p544
sI544
VCOCO_val2014_000000565438
p545
sI545
VCOCO_val2014_000000335924
p546
sI546
VCOCO_val2014_000000314074
p547
sI547
VCOCO_val2014_000000413704
p548
sI548
VCOCO_val2014_000000303320
p549
sI549
VCOCO_val2014_000000303321
p550
sI550
VCOCO_val2014_000000184388
p551
sI551
VCOCO_val2014_000000409725
p552
sI552
VCOCO_val2014_000000239625
p553
sI553
VCOCO_val2014_000000198733
p554
sI554
VCOCO_val2014_000000426011
p555
sI555
VCOCO_val2014_000000458992
p556
sI556
VCOCO_val2014_000000458903
p557
sI557
VCOCO_val2014_000000018480
p558
sI558
VCOCO_val2014_000000536654
p559
sI559
VCOCO_val2014_000000532481
p560
sI560
VCOCO_val2014_000000067207
p561
sI561
VCOCO_val2014_000000475398
p562
sI562
VCOCO_val2014_000000442582
p563
sI563
VCOCO_val2014_000000053263
p564
sI564
VCOCO_val2014_000000468022
p565
sI565
VCOCO_val2014_000000442630
p566
sI566
VCOCO_val2014_000000399369
p567
sI567
VCOCO_val2014_000000540806
p568
sI568
VCOCO_val2014_000000510103
p569
sI569
VCOCO_val2014_000000145448
p570
sI570
VCOCO_val2014_000000543836
p571
sI571
VCOCO_val2014_000000237568
p572
sI572
VCOCO_val2014_000000227440
p573
sI573
VCOCO_val2014_000000161799
p574
sI574
VCOCO_val2014_000000298362
p575
sI575
VCOCO_val2014_000000057424
p576
sI576
VCOCO_val2014_000000540740
p577
sI577
VCOCO_val2014_000000087393
p578
sI578
VCOCO_val2014_000000388439
p579
sI579
VCOCO_val2014_000000077954
p580
sI580
VCOCO_val2014_000000332025
p581
sI581
VCOCO_val2014_000000460858
p582
sI582
VCOCO_val2014_000000004246
p583
sI583
VCOCO_val2014_000000053465
p584
sI584
VCOCO_val2014_000000202275
p585
sI585
VCOCO_val2014_000000458755
p586
sI586
VCOCO_val2014_000000540733
p587
sI587
VCOCO_val2014_000000374982
p588
sI588
VCOCO_val2014_000000534656
p589
sI589
VCOCO_val2014_000000307341
p590
sI590
VCOCO_val2014_000000303219
p591
sI591
VCOCO_val2014_000000407868
p592
sI592
VCOCO_val2014_000000096566
p593
sI593
VCOCO_val2014_000000305317
p594
sI594
VCOCO_val2014_000000174123
p595
sI595
VCOCO_val2014_000000102820
p596
sI596
VCOCO_val2014_000000303210
p597
sI597
VCOCO_val2014_000000361111
p598
sI598
VCOCO_val2014_000000108253
p599
sI599
VCOCO_val2014_000000397681
p600
sI600
VCOCO_val2014_000000520209
p601
sI601
VCOCO_val2014_000000475439
p602
sI602
VCOCO_val2014_000000201859
p603
sI603
VCOCO_val2014_000000268413
p604
sI604
VCOCO_val2014_000000180329
p605
sI605
VCOCO_val2014_000000032888
p606
sI606
VCOCO_val2014_000000544794
p607
sI607
VCOCO_val2014_000000569618
p608
sI608
VCOCO_val2014_000000037017
p609
sI609
VCOCO_val2014_000000078495
p610
sI610
VCOCO_val2014_000000147725
p611
sI611
VCOCO_val2014_000000346275
p612
sI612
VCOCO_val2014_000000147482
p613
sI613
VCOCO_val2014_000000150208
p614
sI614
VCOCO_val2014_000000176857
p615
sI615
VCOCO_val2014_000000383087
p616
sI616
VCOCO_val2014_000000391255
p617
sI617
VCOCO_val2014_000000488206
p618
sI618
VCOCO_val2014_000000353968
p619
sI619
VCOCO_val2014_000000084130
p620
sI620
VCOCO_val2014_000000163970
p621
sI621
VCOCO_val2014_000000399666
p622
sI622
VCOCO_val2014_000000546983
p623
sI623
VCOCO_val2014_000000153717
p624
sI624
VCOCO_val2014_000000223747
p625
sI625
VCOCO_val2014_000000570407
p626
sI626
VCOCO_val2014_000000471273
p627
sI627
VCOCO_val2014_000000331959
p628
sI628
VCOCO_val2014_000000000136
p629
sI629
VCOCO_val2014_000000033055
p630
sI630
VCOCO_val2014_000000319655
p631
sI631
VCOCO_val2014_000000235203
p632
sI632
VCOCO_val2014_000000196715
p633
sI633
VCOCO_val2014_000000153865
p634
sI634
VCOCO_val2014_000000405530
p635
sI635
VCOCO_val2014_000000431464
p636
sI636
VCOCO_val2014_000000280858
p637
sI637
VCOCO_val2014_000000112769
p638
sI638
VCOCO_val2014_000000579602
p639
sI639
VCOCO_val2014_000000311303
p640
sI640
VCOCO_val2014_000000295194
p641
sI641
VCOCO_val2014_000000225574
p642
sI642
VCOCO_val2014_000000397636
p643
sI643
VCOCO_val2014_000000200770
p644
sI644
VCOCO_val2014_000000136250
p645
sI645
VCOCO_val2014_000000133291
p646
sI646
VCOCO_val2014_000000004108
p647
sI647
VCOCO_val2014_000000213255
p648
sI648
VCOCO_val2014_000000092861
p649
sI649
VCOCO_val2014_000000565479
p650
sI650
VCOCO_val2014_000000159372
p651
sI651
VCOCO_val2014_000000420546
p652
sI652
VCOCO_val2014_000000104563
p653
sI653
VCOCO_val2014_000000246124
p654
sI654
VCOCO_val2014_000000506115
p655
sI655
VCOCO_val2014_000000368855
p656
sI656
VCOCO_val2014_000000088360
p657
sI657
VCOCO_val2014_000000211675
p658
sI658
VCOCO_val2014_000000395402
p659
sI659
VCOCO_val2014_000000207886
p660
sI660
VCOCO_val2014_000000110597
p661
sI661
VCOCO_val2014_000000352582
p662
sI662
VCOCO_val2014_000000471073
p663
sI663
VCOCO_val2014_000000420090
p664
sI664
VCOCO_val2014_000000092519
p665
sI665
VCOCO_val2014_000000278749
p666
sI666
VCOCO_val2014_000000323668
p667
sI667
VCOCO_val2014_000000106624
p668
sI668
VCOCO_val2014_000000501762
p669
sI669
VCOCO_val2014_000000552973
p670
sI670
VCOCO_val2014_000000297244
p671
sI671
VCOCO_val2014_000000274455
p672
sI672
VCOCO_val2014_000000262161
p673
sI673
VCOCO_val2014_000000391290
p674
sI674
VCOCO_val2014_000000561311
p675
sI675
VCOCO_val2014_000000215652
p676
sI676
VCOCO_val2014_000000137300
p677
sI677
VCOCO_val2014_000000428111
p678
sI678
VCOCO_val2014_000000264568
p679
sI679
VCOCO_val2014_000000235743
p680
sI680
VCOCO_val2014_000000294958
p681
sI681
VCOCO_val2014_000000549063
p682
sI682
VCOCO_val2014_000000497674
p683
sI683
VCOCO_val2014_000000204853
p684
sI684
VCOCO_val2014_000000264423
p685
sI685
VCOCO_val2014_000000344205
p686
sI686
VCOCO_val2014_000000324285
p687
sI687
VCOCO_val2014_000000573536
p688
sI688
VCOCO_val2014_000000489733
p689
sI689
VCOCO_val2014_000000333406
p690
sI690
VCOCO_val2014_000000252179
p691
sI691
VCOCO_val2014_000000065655
p692
sI692
VCOCO_val2014_000000379784
p693
sI693
VCOCO_val2014_000000306879
p694
sI694
VCOCO_val2014_000000249883
p695
sI695
VCOCO_val2014_000000383435
p696
sI696
VCOCO_val2014_000000063617
p697
sI697
VCOCO_val2014_000000467194
p698
sI698
VCOCO_val2014_000000153692
p699
sI699
VCOCO_val2014_000000139549
p700
sI700
VCOCO_val2014_000000190950
p701
sI701
VCOCO_val2014_000000307703
p702
sI702
VCOCO_val2014_000000326367
p703
sI703
VCOCO_val2014_000000229531
p704
sI704
VCOCO_val2014_000000327864
p705
sI705
VCOCO_val2014_000000135497
p706
sI706
VCOCO_val2014_000000180362
p707
sI707
VCOCO_val2014_000000560297
p708
sI708
VCOCO_val2014_000000229713
p709
sI709
VCOCO_val2014_000000118906
p710
sI710
VCOCO_val2014_000000243946
p711
sI711
VCOCO_val2014_000000170340
p712
sI712
VCOCO_val2014_000000047177
p713
sI713
VCOCO_val2014_000000266601
p714
sI714
VCOCO_val2014_000000366931
p715
sI715
VCOCO_val2014_000000385196
p716
sI716
VCOCO_val2014_000000490639
p717
sI717
VCOCO_val2014_000000570664
p718
sI718
VCOCO_val2014_000000215151
p719
sI719
VCOCO_val2014_000000132136
p720
sI720
VCOCO_val2014_000000092602
p721
sI721
VCOCO_val2014_000000139468
p722
sI722
VCOCO_val2014_000000196928
p723
sI723
VCOCO_val2014_000000006189
p724
sI724
VCOCO_val2014_000000082052
p725
sI725
VCOCO_val2014_000000315620
p726
sI726
VCOCO_val2014_000000452618
p727
sI727
VCOCO_val2014_000000137271
p728
sI728
VCOCO_val2014_000000226376
p729
sI729
VCOCO_val2014_000000180662
p730
sI730
VCOCO_val2014_000000487612
p731
sI731
VCOCO_val2014_000000543065
p732
sI732
VCOCO_val2014_000000127313
p733
sI733
VCOCO_val2014_000000512416
p734
sI734
VCOCO_val2014_000000025984
p735
sI735
VCOCO_val2014_000000319184
p736
sI736
VCOCO_val2014_000000161925
p737
sI737
VCOCO_val2014_000000491793
p738
sI738
VCOCO_val2014_000000261333
p739
sI739
VCOCO_val2014_000000127074
p740
sI740
VCOCO_val2014_000000415420
p741
sI741
VCOCO_val2014_000000561411
p742
sI742
VCOCO_val2014_000000146785
p743
sI743
VCOCO_val2014_000000434204
p744
sI744
VCOCO_val2014_000000543045
p745
sI745
VCOCO_val2014_000000456784
p746
sI746
VCOCO_val2014_000000124002
p747
sI747
VCOCO_val2014_000000290979
p748
sI748
VCOCO_val2014_000000145528
p749
sI749
VCOCO_val2014_000000033061
p750
sI750
VCOCO_val2014_000000440329
p751
sI751
VCOCO_val2014_000000216944
p752
sI752
VCOCO_val2014_000000213359
p753
sI753
VCOCO_val2014_000000237783
p754
sI754
VCOCO_val2014_000000223413
p755
sI755
VCOCO_val2014_000000479350
p756
sI756
VCOCO_val2014_000000205002
p757
sI757
VCOCO_val2014_000000260470
p758
sI758
VCOCO_val2014_000000452899
p759
sI759
VCOCO_val2014_000000276063
p760
sI760
VCOCO_val2014_000000149676
p761
sI761
VCOCO_val2014_000000313770
p762
sI762
VCOCO_val2014_000000106617
p763
sI763
VCOCO_val2014_000000127556
p764
sI764
VCOCO_val2014_000000475159
p765
sI765
VCOCO_val2014_000000286422
p766
sI766
VCOCO_val2014_000000000074
p767
sI767
VCOCO_val2014_000000106661
p768
sI768
VCOCO_val2014_000000196742
p769
sI769
VCOCO_val2014_000000372844
p770
sI770
VCOCO_val2014_000000343753
p771
sI771
VCOCO_val2014_000000217188
p772
sI772
VCOCO_val2014_000000395283
p773
sI773
VCOCO_val2014_000000039152
p774
sI774
VCOCO_val2014_000000032941
p775
sI775
VCOCO_val2014_000000202923
p776
sI776
VCOCO_val2014_000000282768
p777
sI777
VCOCO_val2014_000000430265
p778
sI778
VCOCO_val2014_000000572147
p779
sI779
VCOCO_val2014_000000458861
p780
sI780
VCOCO_val2014_000000096288
p781
sI781
VCOCO_val2014_000000195353
p782
sI782
VCOCO_val2014_000000284789
p783
sI783
VCOCO_val2014_000000072000
p784
sI784
VCOCO_val2014_000000250113
p785
sI785
VCOCO_val2014_000000159790
p786
sI786
VCOCO_val2014_000000004275
p787
sI787
VCOCO_val2014_000000510078
p788
sI788
VCOCO_val2014_000000052376
p789
sI789
VCOCO_val2014_000000327919
p790
sI790
VCOCO_val2014_000000294918
p791
sI791
VCOCO_val2014_000000507975
p792
sI792
VCOCO_val2014_000000344410
p793
sI793
VCOCO_val2014_000000368648
p794
sI794
VCOCO_val2014_000000524533
p795
sI795
VCOCO_val2014_000000524436
p796
sI796
VCOCO_val2014_000000149571
p797
sI797
VCOCO_val2014_000000506401
p798
sI798
VCOCO_val2014_000000002179
p799
sI799
VCOCO_val2014_000000241837
p800
sI800
VCOCO_val2014_000000554669
p801
sI801
VCOCO_val2014_000000204887
p802
sI802
VCOCO_val2014_000000311374
p803
sI803
VCOCO_val2014_000000421915
p804
sI804
VCOCO_val2014_000000198935
p805
sI805
VCOCO_val2014_000000276719
p806
sI806
VCOCO_val2014_000000092939
p807
sI807
VCOCO_val2014_000000428064
p808
sI808
VCOCO_val2014_000000229391
p809
sI809
VCOCO_val2014_000000350416
p810
sI810
VCOCO_val2014_000000283286
p811
sI811
VCOCO_val2014_000000020598
p812
sI812
VCOCO_val2014_000000245462
p813
sI813
VCOCO_val2014_000000360573
p814
sI814
VCOCO_val2014_000000198658
p815
sI815
VCOCO_val2014_000000397427
p816
sI816
VCOCO_val2014_000000262275
p817
sI817
VCOCO_val2014_000000282942
p818
sI818
VCOCO_val2014_000000475208
p819
sI819
VCOCO_val2014_000000444576
p820
sI820
VCOCO_val2014_000000293124
p821
sI821
VCOCO_val2014_000000010496
p822
sI822
VCOCO_val2014_000000032464
p823
sI823
VCOCO_val2014_000000311309
p824
sI824
VCOCO_val2014_000000221282
p825
sI825
VCOCO_val2014_000000360073
p826
sI826
VCOCO_val2014_000000194790
p827
sI827
VCOCO_val2014_000000311300
p828
sI828
VCOCO_val2014_000000442463
p829
sI829
VCOCO_val2014_000000014353
p830
sI830
VCOCO_val2014_000000202799
p831
sI831
VCOCO_val2014_000000495989
p832
sI832
VCOCO_val2014_000000409929
p833
sI833
VCOCO_val2014_000000248235
p834
sI834
VCOCO_val2014_000000408736
p835
sI835
VCOCO_val2014_000000077891
p836
sI836
VCOCO_val2014_000000235778
p837
sI837
VCOCO_val2014_000000065604
p838
sI838
VCOCO_val2014_000000099341
p839
sI839
VCOCO_val2014_000000290839
p840
sI840
VCOCO_val2014_000000196798
p841
sI841
VCOCO_val2014_000000452866
p842
sI842
VCOCO_val2014_000000051203
p843
sI843
VCOCO_val2014_000000328430
p844
sI844
VCOCO_val2014_000000524450
p845
sI845
VCOCO_val2014_000000022628
p846
sI846
VCOCO_val2014_000000159898
p847
sI847
VCOCO_val2014_000000012576
p848
sI848
VCOCO_val2014_000000356544
p849
sI849
VCOCO_val2014_000000508605
p850
sI850
VCOCO_val2014_000000282830
p851
sI851
VCOCO_val2014_000000569452
p852
sI852
VCOCO_val2014_000000529590
p853
sI853
VCOCO_val2014_000000366659
p854
sI854
VCOCO_val2014_000000467000
p855
sI855
VCOCO_val2014_000000196811
p856
sI856
VCOCO_val2014_000000139518
p857
sI857
VCOCO_val2014_000000147653
p858
sI858
VCOCO_val2014_000000231644
p859
s.